
Slave_sensor_ultrasonico.elf:     file format elf32-avr

Sections:
Idx Name          Size      VMA       LMA       File off  Algn
  0 .data         00000000  00800100  00800100  000005ba  2**0
                  CONTENTS, ALLOC, LOAD, DATA
  1 .text         00000546  00000000  00000000  00000074  2**1
                  CONTENTS, ALLOC, LOAD, READONLY, CODE
  2 .bss          0000000f  00800100  00800100  000005ba  2**0
                  ALLOC
  3 .comment      00000030  00000000  00000000  000005ba  2**0
                  CONTENTS, READONLY
  4 .note.gnu.avr.deviceinfo 00000040  00000000  00000000  000005ec  2**2
                  CONTENTS, READONLY
  5 .debug_aranges 000000d8  00000000  00000000  0000062c  2**0
                  CONTENTS, READONLY, DEBUGGING
  6 .debug_info   00000bf7  00000000  00000000  00000704  2**0
                  CONTENTS, READONLY, DEBUGGING
  7 .debug_abbrev 000008f9  00000000  00000000  000012fb  2**0
                  CONTENTS, READONLY, DEBUGGING
  8 .debug_line   00000964  00000000  00000000  00001bf4  2**0
                  CONTENTS, READONLY, DEBUGGING
  9 .debug_frame  000001dc  00000000  00000000  00002558  2**2
                  CONTENTS, READONLY, DEBUGGING
 10 .debug_str    0000058d  00000000  00000000  00002734  2**0
                  CONTENTS, READONLY, DEBUGGING
 11 .debug_loc    0000038c  00000000  00000000  00002cc1  2**0
                  CONTENTS, READONLY, DEBUGGING
 12 .debug_ranges 000000a8  00000000  00000000  0000304d  2**0
                  CONTENTS, READONLY, DEBUGGING

Disassembly of section .text:

00000000 <__vectors>:
   0:	0c 94 34 00 	jmp	0x68	; 0x68 <__ctors_end>
   4:	0c 94 46 00 	jmp	0x8c	; 0x8c <__bad_interrupt>
   8:	0c 94 46 00 	jmp	0x8c	; 0x8c <__bad_interrupt>
   c:	0c 94 46 00 	jmp	0x8c	; 0x8c <__bad_interrupt>
  10:	0c 94 46 00 	jmp	0x8c	; 0x8c <__bad_interrupt>
  14:	0c 94 46 00 	jmp	0x8c	; 0x8c <__bad_interrupt>
  18:	0c 94 46 00 	jmp	0x8c	; 0x8c <__bad_interrupt>
  1c:	0c 94 46 00 	jmp	0x8c	; 0x8c <__bad_interrupt>
  20:	0c 94 46 00 	jmp	0x8c	; 0x8c <__bad_interrupt>
  24:	0c 94 2a 02 	jmp	0x454	; 0x454 <__vector_9>
  28:	0c 94 ce 01 	jmp	0x39c	; 0x39c <__vector_10>
  2c:	0c 94 46 00 	jmp	0x8c	; 0x8c <__bad_interrupt>
  30:	0c 94 46 00 	jmp	0x8c	; 0x8c <__bad_interrupt>
  34:	0c 94 46 00 	jmp	0x8c	; 0x8c <__bad_interrupt>
  38:	0c 94 46 00 	jmp	0x8c	; 0x8c <__bad_interrupt>
  3c:	0c 94 46 00 	jmp	0x8c	; 0x8c <__bad_interrupt>
  40:	0c 94 46 00 	jmp	0x8c	; 0x8c <__bad_interrupt>
  44:	0c 94 46 00 	jmp	0x8c	; 0x8c <__bad_interrupt>
  48:	0c 94 46 00 	jmp	0x8c	; 0x8c <__bad_interrupt>
  4c:	0c 94 46 00 	jmp	0x8c	; 0x8c <__bad_interrupt>
  50:	0c 94 46 00 	jmp	0x8c	; 0x8c <__bad_interrupt>
  54:	0c 94 46 00 	jmp	0x8c	; 0x8c <__bad_interrupt>
  58:	0c 94 46 00 	jmp	0x8c	; 0x8c <__bad_interrupt>
  5c:	0c 94 46 00 	jmp	0x8c	; 0x8c <__bad_interrupt>
  60:	0c 94 41 02 	jmp	0x482	; 0x482 <__vector_24>
  64:	0c 94 46 00 	jmp	0x8c	; 0x8c <__bad_interrupt>

00000068 <__ctors_end>:
  68:	11 24       	eor	r1, r1
  6a:	1f be       	out	0x3f, r1	; 63
  6c:	cf ef       	ldi	r28, 0xFF	; 255
  6e:	d8 e0       	ldi	r29, 0x08	; 8
  70:	de bf       	out	0x3e, r29	; 62
  72:	cd bf       	out	0x3d, r28	; 61

00000074 <__do_clear_bss>:
  74:	21 e0       	ldi	r18, 0x01	; 1
  76:	a0 e0       	ldi	r26, 0x00	; 0
  78:	b1 e0       	ldi	r27, 0x01	; 1
  7a:	01 c0       	rjmp	.+2      	; 0x7e <.do_clear_bss_start>

0000007c <.do_clear_bss_loop>:
  7c:	1d 92       	st	X+, r1

0000007e <.do_clear_bss_start>:
  7e:	af 30       	cpi	r26, 0x0F	; 15
  80:	b2 07       	cpc	r27, r18
  82:	e1 f7       	brne	.-8      	; 0x7c <.do_clear_bss_loop>
  84:	0e 94 8c 01 	call	0x318	; 0x318 <main>
  88:	0c 94 a1 02 	jmp	0x542	; 0x542 <_exit>

0000008c <__bad_interrupt>:
  8c:	0c 94 00 00 	jmp	0	; 0x0 <__vectors>

00000090 <initPWM2>:
}

void initPWM2(void)
{
	// Configurar pines como salida
	DDRB |= (1 << DDB3);  // PB3 ? OC2A ? D11
  90:	84 b1       	in	r24, 0x04	; 4
  92:	88 60       	ori	r24, 0x08	; 8
  94:	84 b9       	out	0x04, r24	; 4
	DDRD |= (1 << DDD3);  // PD3 ? OC2B ? D3
  96:	8a b1       	in	r24, 0x0a	; 10
  98:	88 60       	ori	r24, 0x08	; 8
  9a:	8a b9       	out	0x0a, r24	; 10
	// Limpiar registros
	TCCR2A = 0;
  9c:	e0 eb       	ldi	r30, 0xB0	; 176
  9e:	f0 e0       	ldi	r31, 0x00	; 0
  a0:	10 82       	st	Z, r1
	TCCR2B = 0;
  a2:	a1 eb       	ldi	r26, 0xB1	; 177
  a4:	b0 e0       	ldi	r27, 0x00	; 0
  a6:	1c 92       	st	X, r1
	// Modo Fast PWM (WGM22:0 = 3)
	TCCR2A |= (1 << WGM20) | (1 << WGM21);
  a8:	80 81       	ld	r24, Z
  aa:	83 60       	ori	r24, 0x03	; 3
  ac:	80 83       	st	Z, r24
	// Salida no invertida
	TCCR2A |= (1 << COM2A1);  // OC2A
  ae:	80 81       	ld	r24, Z
  b0:	80 68       	ori	r24, 0x80	; 128
  b2:	80 83       	st	Z, r24
	//TCCR2A |= (1 << COM2B1);  // OC2B         Descomentar este comando para poder usar OCR2B
	// Prescaler = 64
	TCCR2B |= (1 << CS22);
  b4:	8c 91       	ld	r24, X
  b6:	84 60       	ori	r24, 0x04	; 4
  b8:	8c 93       	st	X, r24
  ba:	08 95       	ret

000000bc <I2C_Slave_Init>:
}

//Función para inicializar I2C Esclavo
void I2C_Slave_Init(uint8_t ubicacion)
{
	DDRC &= ~((1 << DDC4) | (1 << DDC5)); //Pines de I2C como entradas
  bc:	97 b1       	in	r25, 0x07	; 7
  be:	9f 7c       	andi	r25, 0xCF	; 207
  c0:	97 b9       	out	0x07, r25	; 7
	
	TWAR = ubicacion << 1; // Se asigna la dirección que tendrá 
  c2:	88 0f       	add	r24, r24
  c4:	80 93 ba 00 	sts	0x00BA, r24	; 0x8000ba <__TEXT_REGION_LENGTH__+0x7f80ba>
	//TWAR = (address << 1 | 0x01); //Se asigna la dirección que tendra y habilita llamada general
	
	//Se habilita la interfaz, ACK automatico, se habilita la ISR
	TWCR = (1 << TWEA) | (1 << TWEN) | (1 << TWIE);
  c8:	85 e4       	ldi	r24, 0x45	; 69
  ca:	80 93 bc 00 	sts	0x00BC, r24	; 0x8000bc <__TEXT_REGION_LENGTH__+0x7f80bc>
  ce:	08 95       	ret

000000d0 <secuencia_leds>:
void secuencia_leds(uint8_t activar)
{
	static uint16_t inicio = 0;
	static uint8_t estado = 0;

	if(activar)
  d0:	88 23       	and	r24, r24
  d2:	09 f4       	brne	.+2      	; 0xd6 <secuencia_leds+0x6>
  d4:	d3 c0       	rjmp	.+422    	; 0x27c <secuencia_leds+0x1ac>
	{
		if(estado == 0)
  d6:	80 91 02 01 	lds	r24, 0x0102	; 0x800102 <estado.1775>
  da:	81 11       	cpse	r24, r1
  dc:	0c c0       	rjmp	.+24     	; 0xf6 <secuencia_leds+0x26>
		{
			inicio = contador;
  de:	80 91 0c 01 	lds	r24, 0x010C	; 0x80010c <contador>
  e2:	90 91 0d 01 	lds	r25, 0x010D	; 0x80010d <contador+0x1>
  e6:	90 93 01 01 	sts	0x0101, r25	; 0x800101 <__DATA_REGION_ORIGIN__+0x1>
  ea:	80 93 00 01 	sts	0x0100, r24	; 0x800100 <__DATA_REGION_ORIGIN__>
			estado = 1;
  ee:	81 e0       	ldi	r24, 0x01	; 1
  f0:	80 93 02 01 	sts	0x0102, r24	; 0x800102 <estado.1775>
  f4:	08 95       	ret
		}

		else if(estado == 1 && contador - inicio >= 500)
  f6:	81 30       	cpi	r24, 0x01	; 1
  f8:	a1 f4       	brne	.+40     	; 0x122 <secuencia_leds+0x52>
  fa:	20 91 0c 01 	lds	r18, 0x010C	; 0x80010c <contador>
  fe:	30 91 0d 01 	lds	r19, 0x010D	; 0x80010d <contador+0x1>
 102:	40 91 00 01 	lds	r20, 0x0100	; 0x800100 <__DATA_REGION_ORIGIN__>
 106:	50 91 01 01 	lds	r21, 0x0101	; 0x800101 <__DATA_REGION_ORIGIN__+0x1>
 10a:	24 1b       	sub	r18, r20
 10c:	35 0b       	sbc	r19, r21
 10e:	24 3f       	cpi	r18, 0xF4	; 244
 110:	31 40       	sbci	r19, 0x01	; 1
 112:	38 f0       	brcs	.+14     	; 0x122 <secuencia_leds+0x52>
		{
			PORTD |= (1 << PORTD2);
 114:	8b b1       	in	r24, 0x0b	; 11
 116:	84 60       	ori	r24, 0x04	; 4
 118:	8b b9       	out	0x0b, r24	; 11
			estado = 2;
 11a:	82 e0       	ldi	r24, 0x02	; 2
 11c:	80 93 02 01 	sts	0x0102, r24	; 0x800102 <estado.1775>
 120:	08 95       	ret
		}

		else if(estado == 2 && contador - inicio >= 1000)
 122:	82 30       	cpi	r24, 0x02	; 2
 124:	a1 f4       	brne	.+40     	; 0x14e <secuencia_leds+0x7e>
 126:	20 91 0c 01 	lds	r18, 0x010C	; 0x80010c <contador>
 12a:	30 91 0d 01 	lds	r19, 0x010D	; 0x80010d <contador+0x1>
 12e:	40 91 00 01 	lds	r20, 0x0100	; 0x800100 <__DATA_REGION_ORIGIN__>
 132:	50 91 01 01 	lds	r21, 0x0101	; 0x800101 <__DATA_REGION_ORIGIN__+0x1>
 136:	24 1b       	sub	r18, r20
 138:	35 0b       	sbc	r19, r21
 13a:	28 3e       	cpi	r18, 0xE8	; 232
 13c:	33 40       	sbci	r19, 0x03	; 3
 13e:	38 f0       	brcs	.+14     	; 0x14e <secuencia_leds+0x7e>
		{
			PORTD |= (1 << PORTD3);
 140:	8b b1       	in	r24, 0x0b	; 11
 142:	88 60       	ori	r24, 0x08	; 8
 144:	8b b9       	out	0x0b, r24	; 11
			estado = 3;
 146:	83 e0       	ldi	r24, 0x03	; 3
 148:	80 93 02 01 	sts	0x0102, r24	; 0x800102 <estado.1775>
 14c:	08 95       	ret
		}

		else if(estado == 3 && contador - inicio >= 1500)
 14e:	83 30       	cpi	r24, 0x03	; 3
 150:	a1 f4       	brne	.+40     	; 0x17a <secuencia_leds+0xaa>
 152:	20 91 0c 01 	lds	r18, 0x010C	; 0x80010c <contador>
 156:	30 91 0d 01 	lds	r19, 0x010D	; 0x80010d <contador+0x1>
 15a:	40 91 00 01 	lds	r20, 0x0100	; 0x800100 <__DATA_REGION_ORIGIN__>
 15e:	50 91 01 01 	lds	r21, 0x0101	; 0x800101 <__DATA_REGION_ORIGIN__+0x1>
 162:	24 1b       	sub	r18, r20
 164:	35 0b       	sbc	r19, r21
 166:	2c 3d       	cpi	r18, 0xDC	; 220
 168:	35 40       	sbci	r19, 0x05	; 5
 16a:	38 f0       	brcs	.+14     	; 0x17a <secuencia_leds+0xaa>
		{
			PORTD |= (1 << PORTD4);
 16c:	8b b1       	in	r24, 0x0b	; 11
 16e:	80 61       	ori	r24, 0x10	; 16
 170:	8b b9       	out	0x0b, r24	; 11
			estado = 4;
 172:	84 e0       	ldi	r24, 0x04	; 4
 174:	80 93 02 01 	sts	0x0102, r24	; 0x800102 <estado.1775>
 178:	08 95       	ret
		}
		else if(estado == 4 && contador - inicio >= 2000)
 17a:	84 30       	cpi	r24, 0x04	; 4
 17c:	a1 f4       	brne	.+40     	; 0x1a6 <secuencia_leds+0xd6>
 17e:	20 91 0c 01 	lds	r18, 0x010C	; 0x80010c <contador>
 182:	30 91 0d 01 	lds	r19, 0x010D	; 0x80010d <contador+0x1>
 186:	40 91 00 01 	lds	r20, 0x0100	; 0x800100 <__DATA_REGION_ORIGIN__>
 18a:	50 91 01 01 	lds	r21, 0x0101	; 0x800101 <__DATA_REGION_ORIGIN__+0x1>
 18e:	24 1b       	sub	r18, r20
 190:	35 0b       	sbc	r19, r21
 192:	20 3d       	cpi	r18, 0xD0	; 208
 194:	37 40       	sbci	r19, 0x07	; 7
 196:	38 f0       	brcs	.+14     	; 0x1a6 <secuencia_leds+0xd6>
		{
			PORTD |= (1 << PORTD5);
 198:	8b b1       	in	r24, 0x0b	; 11
 19a:	80 62       	ori	r24, 0x20	; 32
 19c:	8b b9       	out	0x0b, r24	; 11
			estado = 5;
 19e:	85 e0       	ldi	r24, 0x05	; 5
 1a0:	80 93 02 01 	sts	0x0102, r24	; 0x800102 <estado.1775>
 1a4:	08 95       	ret
		}
		else if(estado == 5 && contador - inicio >= 2200)
 1a6:	85 30       	cpi	r24, 0x05	; 5
 1a8:	a1 f4       	brne	.+40     	; 0x1d2 <secuencia_leds+0x102>
 1aa:	20 91 0c 01 	lds	r18, 0x010C	; 0x80010c <contador>
 1ae:	30 91 0d 01 	lds	r19, 0x010D	; 0x80010d <contador+0x1>
 1b2:	40 91 00 01 	lds	r20, 0x0100	; 0x800100 <__DATA_REGION_ORIGIN__>
 1b6:	50 91 01 01 	lds	r21, 0x0101	; 0x800101 <__DATA_REGION_ORIGIN__+0x1>
 1ba:	24 1b       	sub	r18, r20
 1bc:	35 0b       	sbc	r19, r21
 1be:	28 39       	cpi	r18, 0x98	; 152
 1c0:	38 40       	sbci	r19, 0x08	; 8
 1c2:	38 f0       	brcs	.+14     	; 0x1d2 <secuencia_leds+0x102>
		{
			PORTD |= (1 << PORTD6);
 1c4:	8b b1       	in	r24, 0x0b	; 11
 1c6:	80 64       	ori	r24, 0x40	; 64
 1c8:	8b b9       	out	0x0b, r24	; 11
			estado = 6;
 1ca:	86 e0       	ldi	r24, 0x06	; 6
 1cc:	80 93 02 01 	sts	0x0102, r24	; 0x800102 <estado.1775>
 1d0:	08 95       	ret
		}
		else if(estado == 6 && contador - inicio >= 2300)
 1d2:	86 30       	cpi	r24, 0x06	; 6
 1d4:	a1 f4       	brne	.+40     	; 0x1fe <secuencia_leds+0x12e>
 1d6:	20 91 0c 01 	lds	r18, 0x010C	; 0x80010c <contador>
 1da:	30 91 0d 01 	lds	r19, 0x010D	; 0x80010d <contador+0x1>
 1de:	40 91 00 01 	lds	r20, 0x0100	; 0x800100 <__DATA_REGION_ORIGIN__>
 1e2:	50 91 01 01 	lds	r21, 0x0101	; 0x800101 <__DATA_REGION_ORIGIN__+0x1>
 1e6:	24 1b       	sub	r18, r20
 1e8:	35 0b       	sbc	r19, r21
 1ea:	2c 3f       	cpi	r18, 0xFC	; 252
 1ec:	38 40       	sbci	r19, 0x08	; 8
 1ee:	38 f0       	brcs	.+14     	; 0x1fe <secuencia_leds+0x12e>
		{
			PORTD |= (1 << PORTD7);
 1f0:	8b b1       	in	r24, 0x0b	; 11
 1f2:	80 68       	ori	r24, 0x80	; 128
 1f4:	8b b9       	out	0x0b, r24	; 11
			estado = 7;
 1f6:	87 e0       	ldi	r24, 0x07	; 7
 1f8:	80 93 02 01 	sts	0x0102, r24	; 0x800102 <estado.1775>
 1fc:	08 95       	ret
		}
		else if(estado == 7 && contador - inicio >= 2400)
 1fe:	87 30       	cpi	r24, 0x07	; 7
 200:	a1 f4       	brne	.+40     	; 0x22a <secuencia_leds+0x15a>
 202:	20 91 0c 01 	lds	r18, 0x010C	; 0x80010c <contador>
 206:	30 91 0d 01 	lds	r19, 0x010D	; 0x80010d <contador+0x1>
 20a:	40 91 00 01 	lds	r20, 0x0100	; 0x800100 <__DATA_REGION_ORIGIN__>
 20e:	50 91 01 01 	lds	r21, 0x0101	; 0x800101 <__DATA_REGION_ORIGIN__+0x1>
 212:	24 1b       	sub	r18, r20
 214:	35 0b       	sbc	r19, r21
 216:	20 36       	cpi	r18, 0x60	; 96
 218:	39 40       	sbci	r19, 0x09	; 9
 21a:	38 f0       	brcs	.+14     	; 0x22a <secuencia_leds+0x15a>
		{
			PORTC |= (1 << PORTC1);
 21c:	88 b1       	in	r24, 0x08	; 8
 21e:	82 60       	ori	r24, 0x02	; 2
 220:	88 b9       	out	0x08, r24	; 8
			estado = 8;
 222:	88 e0       	ldi	r24, 0x08	; 8
 224:	80 93 02 01 	sts	0x0102, r24	; 0x800102 <estado.1775>
 228:	08 95       	ret
		}
		else if(estado == 8 && contador - inicio >= 2500)
 22a:	88 30       	cpi	r24, 0x08	; 8
 22c:	a1 f4       	brne	.+40     	; 0x256 <secuencia_leds+0x186>
 22e:	20 91 0c 01 	lds	r18, 0x010C	; 0x80010c <contador>
 232:	30 91 0d 01 	lds	r19, 0x010D	; 0x80010d <contador+0x1>
 236:	40 91 00 01 	lds	r20, 0x0100	; 0x800100 <__DATA_REGION_ORIGIN__>
 23a:	50 91 01 01 	lds	r21, 0x0101	; 0x800101 <__DATA_REGION_ORIGIN__+0x1>
 23e:	24 1b       	sub	r18, r20
 240:	35 0b       	sbc	r19, r21
 242:	24 3c       	cpi	r18, 0xC4	; 196
 244:	39 40       	sbci	r19, 0x09	; 9
 246:	38 f0       	brcs	.+14     	; 0x256 <secuencia_leds+0x186>
		{
			PORTC |= (1 << PORTB2);
 248:	88 b1       	in	r24, 0x08	; 8
 24a:	84 60       	ori	r24, 0x04	; 4
 24c:	88 b9       	out	0x08, r24	; 8
			estado = 9;
 24e:	89 e0       	ldi	r24, 0x09	; 9
 250:	80 93 02 01 	sts	0x0102, r24	; 0x800102 <estado.1775>
 254:	08 95       	ret
		}
		else if(estado == 9 && contador - inicio >= 2550)
 256:	89 30       	cpi	r24, 0x09	; 9
 258:	d9 f4       	brne	.+54     	; 0x290 <secuencia_leds+0x1c0>
 25a:	80 91 0c 01 	lds	r24, 0x010C	; 0x80010c <contador>
 25e:	90 91 0d 01 	lds	r25, 0x010D	; 0x80010d <contador+0x1>
 262:	20 91 00 01 	lds	r18, 0x0100	; 0x800100 <__DATA_REGION_ORIGIN__>
 266:	30 91 01 01 	lds	r19, 0x0101	; 0x800101 <__DATA_REGION_ORIGIN__+0x1>
 26a:	82 1b       	sub	r24, r18
 26c:	93 0b       	sbc	r25, r19
 26e:	86 3f       	cpi	r24, 0xF6	; 246
 270:	99 40       	sbci	r25, 0x09	; 9
 272:	70 f0       	brcs	.+28     	; 0x290 <secuencia_leds+0x1c0>
		{
			PORTC |= (1 << PORTC0);
 274:	88 b1       	in	r24, 0x08	; 8
 276:	81 60       	ori	r24, 0x01	; 1
 278:	88 b9       	out	0x08, r24	; 8
 27a:	08 95       	ret
		}
	}

	else if (activar == 0)
 27c:	81 11       	cpse	r24, r1
 27e:	08 c0       	rjmp	.+16     	; 0x290 <secuencia_leds+0x1c0>
	{
		PORTD &= ~((1<<PORTD2) | (1<<PORTD3) | (1<<PORTD4) | (1<<PORTD5) | (1<<PORTD6) | (1<<PORTD7));
 280:	8b b1       	in	r24, 0x0b	; 11
 282:	83 70       	andi	r24, 0x03	; 3
 284:	8b b9       	out	0x0b, r24	; 11
		PORTC &= ~((1 << PORTC1) | (1 << PORTC2) | (1 << PORTC0));
 286:	88 b1       	in	r24, 0x08	; 8
 288:	88 7f       	andi	r24, 0xF8	; 248
 28a:	88 b9       	out	0x08, r24	; 8
		
		estado = 0;
 28c:	10 92 02 01 	sts	0x0102, r1	; 0x800102 <estado.1775>
 290:	08 95       	ret

00000292 <init_ultrasonic_icp>:
}
*/

void init_ultrasonic_icp(void)
{
	DDRC |= (1 << PORTC3);
 292:	87 b1       	in	r24, 0x07	; 7
 294:	88 60       	ori	r24, 0x08	; 8
 296:	87 b9       	out	0x07, r24	; 7
	DDRB &= ~(1 << DDB0);
 298:	84 b1       	in	r24, 0x04	; 4
 29a:	8e 7f       	andi	r24, 0xFE	; 254
 29c:	84 b9       	out	0x04, r24	; 4

	TCCR1A = 0;
 29e:	10 92 80 00 	sts	0x0080, r1	; 0x800080 <__TEXT_REGION_LENGTH__+0x7f8080>
	TCCR1B = (1 << CS11) | (1 << ICES1);
 2a2:	82 e4       	ldi	r24, 0x42	; 66
 2a4:	80 93 81 00 	sts	0x0081, r24	; 0x800081 <__TEXT_REGION_LENGTH__+0x7f8081>

	TIFR1 |= (1 << ICF1);      // <-- LIMPIAR FLAG
 2a8:	86 b3       	in	r24, 0x16	; 22
 2aa:	80 62       	ori	r24, 0x20	; 32
 2ac:	86 bb       	out	0x16, r24	; 22

	TIMSK1 |= (1 << ICIE1);
 2ae:	ef e6       	ldi	r30, 0x6F	; 111
 2b0:	f0 e0       	ldi	r31, 0x00	; 0
 2b2:	80 81       	ld	r24, Z
 2b4:	80 62       	ori	r24, 0x20	; 32
 2b6:	80 83       	st	Z, r24

	TCNT1 = 0;
 2b8:	10 92 85 00 	sts	0x0085, r1	; 0x800085 <__TEXT_REGION_LENGTH__+0x7f8085>
 2bc:	10 92 84 00 	sts	0x0084, r1	; 0x800084 <__TEXT_REGION_LENGTH__+0x7f8084>
 2c0:	08 95       	ret

000002c2 <setup>:
// NON-INterrupt subroutines
void setup(){
	//***************************************************************************************
	//COnfiguración de leds para estrella de la muerte
	//Configurar como salida
	DDRD |= (1<<DDD2) | (1<<DDD3) | (1<<DDD4) | (1<<DDD5) | (1<<DDD6) | (1<<DDD7);
 2c2:	8a b1       	in	r24, 0x0a	; 10
 2c4:	8c 6f       	ori	r24, 0xFC	; 252
 2c6:	8a b9       	out	0x0a, r24	; 10
	DDRC |= (1<<DDC1) | (1<<DDC2) | (1 << DDC0);
 2c8:	87 b1       	in	r24, 0x07	; 7
 2ca:	87 60       	ori	r24, 0x07	; 7
 2cc:	87 b9       	out	0x07, r24	; 7

	//Apagar todos inicialmente
	PORTD &= ~((1<<PORTD2) | (1<<PORTD3) | (1<<PORTD4) | (1<<PORTD5) | (1<<PORTD6) | (1<<PORTD7));
 2ce:	8b b1       	in	r24, 0x0b	; 11
 2d0:	83 70       	andi	r24, 0x03	; 3
 2d2:	8b b9       	out	0x0b, r24	; 11
	PORTC &= ~((1<<PORTC1) | (1<<PORTC2) | (1<<PORTC0));
 2d4:	88 b1       	in	r24, 0x08	; 8
 2d6:	88 7f       	andi	r24, 0xF8	; 248
 2d8:	88 b9       	out	0x08, r24	; 8
	//****************************************************************************************	
	//Configuración para poder iniciar los pines trigger y echo del sensor
	init_ultrasonic_icp();
 2da:	0e 94 49 01 	call	0x292	; 0x292 <init_ultrasonic_icp>
	initPWM2();
 2de:	0e 94 48 00 	call	0x90	; 0x90 <initPWM2>
	//****************************************************************************************
	DDRB |= (1 << DDB5);
 2e2:	84 b1       	in	r24, 0x04	; 4
 2e4:	80 62       	ori	r24, 0x20	; 32
 2e6:	84 b9       	out	0x04, r24	; 4
	PORTB &= ~(1 << PORTB5); //Led para encender y apgar indicando una comunicación exitosa
 2e8:	85 b1       	in	r24, 0x05	; 5
 2ea:	8f 7d       	andi	r24, 0xDF	; 223
 2ec:	85 b9       	out	0x05, r24	; 5
	//****************************************************************************************

	//inicializar esclavo
	I2C_Slave_Init(SlaveAddress); //Se define la dirección del esclavo
 2ee:	80 e4       	ldi	r24, 0x40	; 64
 2f0:	0e 94 5e 00 	call	0xbc	; 0xbc <I2C_Slave_Init>
	
	TIMSK2 |= (1 << TOIE2); //Activo interrupción por overflow del TIMER 2
 2f4:	e0 e7       	ldi	r30, 0x70	; 112
 2f6:	f0 e0       	ldi	r31, 0x00	; 0
 2f8:	80 81       	ld	r24, Z
 2fa:	81 60       	ori	r24, 0x01	; 1
 2fc:	80 83       	st	Z, r24
	sei(); //Habilitar interrupciones
 2fe:	78 94       	sei
 300:	08 95       	ret

00000302 <trigger_ultrasonic>:
	TCNT1 = 0;
}

void trigger_ultrasonic(void)
{
	PORTC |= (1 << PORTC3);
 302:	88 b1       	in	r24, 0x08	; 8
 304:	88 60       	ori	r24, 0x08	; 8
 306:	88 b9       	out	0x08, r24	; 8
	#else
		//round up by default
		__ticks_dc = (uint32_t)(ceil(fabs(__tmp)));
	#endif

	__builtin_avr_delay_cycles(__ticks_dc);
 308:	83 e0       	ldi	r24, 0x03	; 3
 30a:	8a 95       	dec	r24
 30c:	f1 f7       	brne	.-4      	; 0x30a <trigger_ultrasonic+0x8>
 30e:	00 00       	nop
	_delay_us(10);
	PORTC &= ~(1 << PORTC3);
 310:	88 b1       	in	r24, 0x08	; 8
 312:	87 7f       	andi	r24, 0xF7	; 247
 314:	88 b9       	out	0x08, r24	; 8
 316:	08 95       	ret

00000318 <main>:
void setup(void);
//************************************************************************************
// Main Function
int main(void)
{
	setup();
 318:	0e 94 61 01 	call	0x2c2	; 0x2c2 <setup>
	while (1)
	{
		PORTB ^= (1 << PORTB5);
 31c:	95 b1       	in	r25, 0x05	; 5
 31e:	80 e2       	ldi	r24, 0x20	; 32
 320:	89 27       	eor	r24, r25
 322:	85 b9       	out	0x05, r24	; 5
		if (contador - last_trigger >= 110) {
 324:	80 91 0c 01 	lds	r24, 0x010C	; 0x80010c <contador>
 328:	90 91 0d 01 	lds	r25, 0x010D	; 0x80010d <contador+0x1>
 32c:	20 91 03 01 	lds	r18, 0x0103	; 0x800103 <last_trigger>
 330:	30 91 04 01 	lds	r19, 0x0104	; 0x800104 <last_trigger+0x1>
 334:	82 1b       	sub	r24, r18
 336:	93 0b       	sbc	r25, r19
 338:	8e 36       	cpi	r24, 0x6E	; 110
 33a:	91 05       	cpc	r25, r1
 33c:	50 f0       	brcs	.+20     	; 0x352 <main+0x3a>
			trigger_ultrasonic();
 33e:	0e 94 81 01 	call	0x302	; 0x302 <trigger_ultrasonic>
			last_trigger = contador;
 342:	80 91 0c 01 	lds	r24, 0x010C	; 0x80010c <contador>
 346:	90 91 0d 01 	lds	r25, 0x010D	; 0x80010d <contador+0x1>
 34a:	90 93 04 01 	sts	0x0104, r25	; 0x800104 <last_trigger+0x1>
 34e:	80 93 03 01 	sts	0x0103, r24	; 0x800103 <last_trigger>
		}
		//trigger_ultrasonic();
		//_delay_ms(60);   // tiempo entre disparos

		if (buffer == 'N'){
 352:	80 91 0e 01 	lds	r24, 0x010E	; 0x80010e <buffer>
 356:	8e 34       	cpi	r24, 0x4E	; 78
 358:	61 f4       	brne	.+24     	; 0x372 <main+0x5a>
			PORTC |= (1 << PORTC1);
 35a:	88 b1       	in	r24, 0x08	; 8
 35c:	82 60       	ori	r24, 0x02	; 2
 35e:	88 b9       	out	0x08, r24	; 8
			OCR2A = 130;
 360:	82 e8       	ldi	r24, 0x82	; 130
 362:	80 93 b3 00 	sts	0x00B3, r24	; 0x8000b3 <__TEXT_REGION_LENGTH__+0x7f80b3>
			secuencia_leds(1);
 366:	81 e0       	ldi	r24, 0x01	; 1
 368:	0e 94 68 00 	call	0xd0	; 0xd0 <secuencia_leds>
			//secuencia_leds(1);
			buffer = 0;
 36c:	10 92 0e 01 	sts	0x010E, r1	; 0x80010e <buffer>
 370:	0e c0       	rjmp	.+28     	; 0x38e <main+0x76>
		}else if (buffer == 'F'){
 372:	80 91 0e 01 	lds	r24, 0x010E	; 0x80010e <buffer>
 376:	86 34       	cpi	r24, 0x46	; 70
 378:	51 f4       	brne	.+20     	; 0x38e <main+0x76>
			PORTC &= ~(1 << PORTC1);
 37a:	88 b1       	in	r24, 0x08	; 8
 37c:	8d 7f       	andi	r24, 0xFD	; 253
 37e:	88 b9       	out	0x08, r24	; 8
			OCR2A = 0;
 380:	10 92 b3 00 	sts	0x00B3, r1	; 0x8000b3 <__TEXT_REGION_LENGTH__+0x7f80b3>
			secuencia_leds(0);
 384:	80 e0       	ldi	r24, 0x00	; 0
 386:	0e 94 68 00 	call	0xd0	; 0xd0 <secuencia_leds>
			//secuencia_leds(0);
			buffer = 0;
 38a:	10 92 0e 01 	sts	0x010E, r1	; 0x80010e <buffer>
	#else
		//round up by default
		__ticks_dc = (uint32_t)(ceil(fabs(__tmp)));
	#endif

	__builtin_avr_delay_cycles(__ticks_dc);
 38e:	83 ec       	ldi	r24, 0xC3	; 195
 390:	99 e0       	ldi	r25, 0x09	; 9
 392:	01 97       	sbiw	r24, 0x01	; 1
 394:	f1 f7       	brne	.-4      	; 0x392 <main+0x7a>
 396:	00 c0       	rjmp	.+0      	; 0x398 <main+0x80>
 398:	00 00       	nop
 39a:	c0 cf       	rjmp	.-128    	; 0x31c <main+0x4>

0000039c <__vector_10>:


//************************************************************************************
// Interrupt subroutines
ISR(TIMER1_CAPT_vect)
{
 39c:	1f 92       	push	r1
 39e:	0f 92       	push	r0
 3a0:	0f b6       	in	r0, 0x3f	; 63
 3a2:	0f 92       	push	r0
 3a4:	11 24       	eor	r1, r1
 3a6:	2f 93       	push	r18
 3a8:	3f 93       	push	r19
 3aa:	6f 93       	push	r22
 3ac:	7f 93       	push	r23
 3ae:	8f 93       	push	r24
 3b0:	9f 93       	push	r25
 3b2:	af 93       	push	r26
 3b4:	bf 93       	push	r27
 3b6:	ef 93       	push	r30
 3b8:	ff 93       	push	r31
	if(captura_estado == 0)
 3ba:	80 91 07 01 	lds	r24, 0x0107	; 0x800107 <captura_estado>
 3be:	81 11       	cpse	r24, r1
 3c0:	11 c0       	rjmp	.+34     	; 0x3e4 <__vector_10+0x48>
	{
		tiempo_inicio = ICR1;
 3c2:	80 91 86 00 	lds	r24, 0x0086	; 0x800086 <__TEXT_REGION_LENGTH__+0x7f8086>
 3c6:	90 91 87 00 	lds	r25, 0x0087	; 0x800087 <__TEXT_REGION_LENGTH__+0x7f8087>
 3ca:	90 93 0b 01 	sts	0x010B, r25	; 0x80010b <tiempo_inicio+0x1>
 3ce:	80 93 0a 01 	sts	0x010A, r24	; 0x80010a <tiempo_inicio>
		TCCR1B &= ~(1 << ICES1);
 3d2:	e1 e8       	ldi	r30, 0x81	; 129
 3d4:	f0 e0       	ldi	r31, 0x00	; 0
 3d6:	80 81       	ld	r24, Z
 3d8:	8f 7b       	andi	r24, 0xBF	; 191
 3da:	80 83       	st	Z, r24
		captura_estado = 1;
 3dc:	81 e0       	ldi	r24, 0x01	; 1
 3de:	80 93 07 01 	sts	0x0107, r24	; 0x800107 <captura_estado>
 3e2:	29 c0       	rjmp	.+82     	; 0x436 <__EEPROM_REGION_LENGTH__+0x36>
	}
	else
	{
		tiempo_fin = ICR1;
 3e4:	80 91 86 00 	lds	r24, 0x0086	; 0x800086 <__TEXT_REGION_LENGTH__+0x7f8086>
 3e8:	90 91 87 00 	lds	r25, 0x0087	; 0x800087 <__TEXT_REGION_LENGTH__+0x7f8087>
 3ec:	90 93 09 01 	sts	0x0109, r25	; 0x800109 <tiempo_fin+0x1>
 3f0:	80 93 08 01 	sts	0x0108, r24	; 0x800108 <tiempo_fin>
		uint16_t ticks = tiempo_fin - tiempo_inicio;
 3f4:	20 91 08 01 	lds	r18, 0x0108	; 0x800108 <tiempo_fin>
 3f8:	30 91 09 01 	lds	r19, 0x0109	; 0x800109 <tiempo_fin+0x1>
 3fc:	80 91 0a 01 	lds	r24, 0x010A	; 0x80010a <tiempo_inicio>
 400:	90 91 0b 01 	lds	r25, 0x010B	; 0x80010b <tiempo_inicio+0x1>
 404:	28 1b       	sub	r18, r24
 406:	39 0b       	sbc	r19, r25
		last_distance = ticks / 116;   // SIN FLOAT
 408:	af e9       	ldi	r26, 0x9F	; 159
 40a:	b6 e4       	ldi	r27, 0x46	; 70
 40c:	0e 94 92 02 	call	0x524	; 0x524 <__umulhisi3>
 410:	96 95       	lsr	r25
 412:	87 95       	ror	r24
 414:	92 95       	swap	r25
 416:	82 95       	swap	r24
 418:	8f 70       	andi	r24, 0x0F	; 15
 41a:	89 27       	eor	r24, r25
 41c:	9f 70       	andi	r25, 0x0F	; 15
 41e:	89 27       	eor	r24, r25
 420:	90 93 06 01 	sts	0x0106, r25	; 0x800106 <last_distance+0x1>
 424:	80 93 05 01 	sts	0x0105, r24	; 0x800105 <last_distance>
		TCCR1B |= (1 << ICES1);
 428:	e1 e8       	ldi	r30, 0x81	; 129
 42a:	f0 e0       	ldi	r31, 0x00	; 0
 42c:	80 81       	ld	r24, Z
 42e:	80 64       	ori	r24, 0x40	; 64
 430:	80 83       	st	Z, r24
		captura_estado = 0;
 432:	10 92 07 01 	sts	0x0107, r1	; 0x800107 <captura_estado>
	}
}
 436:	ff 91       	pop	r31
 438:	ef 91       	pop	r30
 43a:	bf 91       	pop	r27
 43c:	af 91       	pop	r26
 43e:	9f 91       	pop	r25
 440:	8f 91       	pop	r24
 442:	7f 91       	pop	r23
 444:	6f 91       	pop	r22
 446:	3f 91       	pop	r19
 448:	2f 91       	pop	r18
 44a:	0f 90       	pop	r0
 44c:	0f be       	out	0x3f, r0	; 63
 44e:	0f 90       	pop	r0
 450:	1f 90       	pop	r1
 452:	18 95       	reti

00000454 <__vector_9>:

ISR(TIMER2_OVF_vect)
{
 454:	1f 92       	push	r1
 456:	0f 92       	push	r0
 458:	0f b6       	in	r0, 0x3f	; 63
 45a:	0f 92       	push	r0
 45c:	11 24       	eor	r1, r1
 45e:	8f 93       	push	r24
 460:	9f 93       	push	r25
	contador++;
 462:	80 91 0c 01 	lds	r24, 0x010C	; 0x80010c <contador>
 466:	90 91 0d 01 	lds	r25, 0x010D	; 0x80010d <contador+0x1>
 46a:	01 96       	adiw	r24, 0x01	; 1
 46c:	90 93 0d 01 	sts	0x010D, r25	; 0x80010d <contador+0x1>
 470:	80 93 0c 01 	sts	0x010C, r24	; 0x80010c <contador>
}
 474:	9f 91       	pop	r25
 476:	8f 91       	pop	r24
 478:	0f 90       	pop	r0
 47a:	0f be       	out	0x3f, r0	; 63
 47c:	0f 90       	pop	r0
 47e:	1f 90       	pop	r1
 480:	18 95       	reti

00000482 <__vector_24>:



ISR(TWI_vect){ //(garbación clase 01:06:00)
 482:	1f 92       	push	r1
 484:	0f 92       	push	r0
 486:	0f b6       	in	r0, 0x3f	; 63
 488:	0f 92       	push	r0
 48a:	11 24       	eor	r1, r1
 48c:	8f 93       	push	r24
 48e:	9f 93       	push	r25
 490:	ef 93       	push	r30
 492:	ff 93       	push	r31
	uint8_t estado = TWSR & 0xFC; //Nos quedamos unicamente con los bits de estado TWI Status
 494:	80 91 b9 00 	lds	r24, 0x00B9	; 0x8000b9 <__TEXT_REGION_LENGTH__+0x7f80b9>
 498:	8c 7f       	andi	r24, 0xFC	; 252
	switch(estado){
 49a:	80 3a       	cpi	r24, 0xA0	; 160
 49c:	99 f1       	breq	.+102    	; 0x504 <__vector_24+0x82>
 49e:	58 f4       	brcc	.+22     	; 0x4b6 <__vector_24+0x34>
 4a0:	80 37       	cpi	r24, 0x70	; 112
 4a2:	a1 f0       	breq	.+40     	; 0x4cc <__vector_24+0x4a>
 4a4:	18 f4       	brcc	.+6      	; 0x4ac <__vector_24+0x2a>
 4a6:	80 36       	cpi	r24, 0x60	; 96
 4a8:	89 f0       	breq	.+34     	; 0x4cc <__vector_24+0x4a>
 4aa:	30 c0       	rjmp	.+96     	; 0x50c <__vector_24+0x8a>
 4ac:	80 38       	cpi	r24, 0x80	; 128
 4ae:	91 f0       	breq	.+36     	; 0x4d4 <__vector_24+0x52>
 4b0:	80 39       	cpi	r24, 0x90	; 144
 4b2:	81 f0       	breq	.+32     	; 0x4d4 <__vector_24+0x52>
 4b4:	2b c0       	rjmp	.+86     	; 0x50c <__vector_24+0x8a>
 4b6:	88 3b       	cpi	r24, 0xB8	; 184
 4b8:	a9 f0       	breq	.+42     	; 0x4e4 <__vector_24+0x62>
 4ba:	18 f4       	brcc	.+6      	; 0x4c2 <__vector_24+0x40>
 4bc:	88 3a       	cpi	r24, 0xA8	; 168
 4be:	91 f0       	breq	.+36     	; 0x4e4 <__vector_24+0x62>
 4c0:	25 c0       	rjmp	.+74     	; 0x50c <__vector_24+0x8a>
 4c2:	80 3c       	cpi	r24, 0xC0	; 192
 4c4:	c9 f0       	breq	.+50     	; 0x4f8 <__vector_24+0x76>
 4c6:	88 3c       	cpi	r24, 0xC8	; 200
 4c8:	b9 f0       	breq	.+46     	; 0x4f8 <__vector_24+0x76>
 4ca:	20 c0       	rjmp	.+64     	; 0x50c <__vector_24+0x8a>
		//**************************
		// Slave debe recibir dato
		//**************************
		case 0x60: //SLA+W recibido
		case 0x70: //General call
			TWCR = (1 << TWINT) | (1 << TWEN) | (1 << TWIE) | (1 << TWEA); //Indica "si te escuche"
 4cc:	85 ec       	ldi	r24, 0xC5	; 197
 4ce:	80 93 bc 00 	sts	0x00BC, r24	; 0x8000bc <__TEXT_REGION_LENGTH__+0x7f80bc>
			break;
 4d2:	1f c0       	rjmp	.+62     	; 0x512 <__vector_24+0x90>
		
		case 0x80: //Dato recibido, ACK enviado
		case 0x90: //Dato recibido General call, ACK enviado
			buffer = TWDR; //Ya puedo utilizar los datos
 4d4:	80 91 bb 00 	lds	r24, 0x00BB	; 0x8000bb <__TEXT_REGION_LENGTH__+0x7f80bb>
 4d8:	80 93 0e 01 	sts	0x010E, r24	; 0x80010e <buffer>
			TWCR = (1 << TWINT) | (1 << TWEN) | (1 << TWIE) | (1 << TWEA);
 4dc:	85 ec       	ldi	r24, 0xC5	; 197
 4de:	80 93 bc 00 	sts	0x00BC, r24	; 0x8000bc <__TEXT_REGION_LENGTH__+0x7f80bc>
			break;
 4e2:	17 c0       	rjmp	.+46     	; 0x512 <__vector_24+0x90>
		// Slave debe transmitir dato
		//*****************************
		//en cada case hay un comando que ya está predeterminado (ver presentacion)
		case 0xA8: //SLA+R recibido
		case 0xB8: //Dato transmitido, ACK recibido
			TWDR = last_distance; //Dato a enviar
 4e4:	80 91 05 01 	lds	r24, 0x0105	; 0x800105 <last_distance>
 4e8:	90 91 06 01 	lds	r25, 0x0106	; 0x800106 <last_distance+0x1>
 4ec:	80 93 bb 00 	sts	0x00BB, r24	; 0x8000bb <__TEXT_REGION_LENGTH__+0x7f80bb>
			TWCR = (1 << TWINT) | (1 << TWEN) | (1 << TWIE) | (1 << TWEA);
 4f0:	85 ec       	ldi	r24, 0xC5	; 197
 4f2:	80 93 bc 00 	sts	0x00BC, r24	; 0x8000bc <__TEXT_REGION_LENGTH__+0x7f80bc>
			break;
 4f6:	0d c0       	rjmp	.+26     	; 0x512 <__vector_24+0x90>
		//IMPORTANTE: que pasa si quiero enviar más de un dato?
		//Se puede hacer un arreglo por cada vez que envío un dato (ver grabación clase 1:07:30)
		
		case 0xC0: //Dato transmitido, NACK recibido
		case 0xC8: //Último dato transmitido
			TWCR = 0; //Limpio la interfaz para rebibir nuevo dato
 4f8:	ec eb       	ldi	r30, 0xBC	; 188
 4fa:	f0 e0       	ldi	r31, 0x00	; 0
 4fc:	10 82       	st	Z, r1
			TWCR = (1 << TWEN) | (1 << TWEA) | (1 << TWIE); //Reiniciarse
 4fe:	85 e4       	ldi	r24, 0x45	; 69
 500:	80 83       	st	Z, r24
			break;
 502:	07 c0       	rjmp	.+14     	; 0x512 <__vector_24+0x90>
			
		case 0xA0: // STOP o repeated START recibido como slave
			TWCR = (1 << TWINT) | (1 << TWEN) | (1 << TWIE) | (1 << TWEA);
 504:	85 ec       	ldi	r24, 0xC5	; 197
 506:	80 93 bc 00 	sts	0x00BC, r24	; 0x8000bc <__TEXT_REGION_LENGTH__+0x7f80bc>
			break;
 50a:	03 c0       	rjmp	.+6      	; 0x512 <__vector_24+0x90>
		//**********************
		// Cualquier error
		//**********************
		default:
			TWCR = (1 << TWINT) | (1 << TWEN) | (1 << TWIE) | (1 << TWEA);
 50c:	85 ec       	ldi	r24, 0xC5	; 197
 50e:	80 93 bc 00 	sts	0x00BC, r24	; 0x8000bc <__TEXT_REGION_LENGTH__+0x7f80bc>
			break;
		
	}
	
 512:	ff 91       	pop	r31
 514:	ef 91       	pop	r30
 516:	9f 91       	pop	r25
 518:	8f 91       	pop	r24
 51a:	0f 90       	pop	r0
 51c:	0f be       	out	0x3f, r0	; 63
 51e:	0f 90       	pop	r0
 520:	1f 90       	pop	r1
 522:	18 95       	reti

00000524 <__umulhisi3>:
 524:	a2 9f       	mul	r26, r18
 526:	b0 01       	movw	r22, r0
 528:	b3 9f       	mul	r27, r19
 52a:	c0 01       	movw	r24, r0
 52c:	a3 9f       	mul	r26, r19
 52e:	70 0d       	add	r23, r0
 530:	81 1d       	adc	r24, r1
 532:	11 24       	eor	r1, r1
 534:	91 1d       	adc	r25, r1
 536:	b2 9f       	mul	r27, r18
 538:	70 0d       	add	r23, r0
 53a:	81 1d       	adc	r24, r1
 53c:	11 24       	eor	r1, r1
 53e:	91 1d       	adc	r25, r1
 540:	08 95       	ret

00000542 <_exit>:
 542:	f8 94       	cli

00000544 <__stop_program>:
 544:	ff cf       	rjmp	.-2      	; 0x544 <__stop_program>
